target datalayout = "e-m:e-p270:32:32-p271:32:32-p272:64:64-i64:64-i128:128-f80:128-n8:16:32:64-S128"
target triple = "x86_64-unknown-linux-gnu"

@_ZTIN8facebook3jsi7JSErrorE = constant { ptr, ptr, ptr } { ptr getelementptr inbounds (ptr, ptr @_ZTVN10__cxxabiv120__si_class_type_infoE, i64 2), ptr @_ZTSN8facebook3jsi7JSErrorE, ptr @_ZTIN8facebook3jsi12JSIExceptionE }, align 8
@.str.20 = private unnamed_addr constant [38 x i8] c"Lossy truncation in BigInt64::asInt64\00", align 1
@_ZN8facebook3jsi7JSErrorD1Ev = unnamed_addr alias void (ptr), ptr @_ZN8facebook3jsi7JSErrorD2Ev

; Function Attrs: mustprogress uwtable
define linkonce_odr noundef i64 @_ZNK8facebook3jsi6BigInt8getInt64ERNS0_7RuntimeE(ptr noundef nonnull align 8 dereferenceable(8) %this, ptr noundef nonnull align 8 dereferenceable(8) %runtime) #2 comdat align 2 {
entry:
  %this.addr = alloca ptr, align 8
  %runtime.addr = alloca ptr, align 8
  store ptr %this, ptr %this.addr, align 8
  store ptr %runtime, ptr %runtime.addr, align 8
  %this1 = load ptr, ptr %this.addr, align 8
  %0 = load ptr, ptr %runtime.addr, align 8
  %vtable = load ptr, ptr %0, align 8
  %vfn = getelementptr inbounds ptr, ptr %vtable, i64 26
  %1 = load ptr, ptr %vfn, align 8
  %call = call noundef i64 %1(ptr noundef nonnull align 8 dereferenceable(8) %0, ptr noundef nonnull align 8 dereferenceable(8) %this1)
  ret i64 %call
}

; Function Attrs: mustprogress uwtable
define linkonce_odr noundef zeroext i1 @_ZNK8facebook3jsi6BigInt7isInt64ERNS0_7RuntimeE(ptr noundef nonnull align 8 dereferenceable(8) %this, ptr noundef nonnull align 8 dereferenceable(8) %runtime) #2 comdat align 2 {
entry:
  %this.addr = alloca ptr, align 8
  %runtime.addr = alloca ptr, align 8
  store ptr %this, ptr %this.addr, align 8
  store ptr %runtime, ptr %runtime.addr, align 8
  %this1 = load ptr, ptr %this.addr, align 8
  %0 = load ptr, ptr %runtime.addr, align 8
  %vtable = load ptr, ptr %0, align 8
  %vfn = getelementptr inbounds ptr, ptr %vtable, i64 24
  %1 = load ptr, ptr %vfn, align 8
  %call = call noundef zeroext i1 %1(ptr noundef nonnull align 8 dereferenceable(8) %0, ptr noundef nonnull align 8 dereferenceable(8) %this1)
  ret i1 %call
}

; Function Attrs: mustprogress uwtable
define noundef i64 @_ZNK8facebook3jsi6BigInt7asInt64ERNS0_7RuntimeE(ptr noundef nonnull align 8 dereferenceable(8) %this, ptr noundef nonnull align 8 dereferenceable(8) %runtime) #2 align 2 personality ptr @__gxx_personality_v0 {
entry:
  %this.addr = alloca ptr, align 8
  %runtime.addr = alloca ptr, align 8
  %exn.slot = alloca ptr, align 8
  %ehselector.slot = alloca i32, align 4
  store ptr %this, ptr %this.addr, align 8
  store ptr %runtime, ptr %runtime.addr, align 8
  %this1 = load ptr, ptr %this.addr, align 8
  %0 = load ptr, ptr %runtime.addr, align 8
  %call = call noundef zeroext i1 @_ZNK8facebook3jsi6BigInt7isInt64ERNS0_7RuntimeE(ptr noundef nonnull align 8 dereferenceable(8) %this1, ptr noundef nonnull align 8 dereferenceable(8) %0)
  br i1 %call, label %if.end, label %if.then

if.then:                                          ; preds = %entry
  %exception = call ptr @__cxa_allocate_exception(i64 120) #6
  %1 = load ptr, ptr %runtime.addr, align 8
  invoke void @_ZN8facebook3jsi7JSErrorC2ERNS0_7RuntimeEPKc(ptr noundef nonnull align 8 dereferenceable(120) %exception, ptr noundef nonnull align 8 dereferenceable(8) %1, ptr noundef @.str.20)
          to label %invoke.cont unwind label %lpad

invoke.cont:                                      ; preds = %if.then
  call void @__cxa_throw(ptr %exception, ptr @_ZTIN8facebook3jsi7JSErrorE, ptr @_ZN8facebook3jsi7JSErrorD1Ev) #16
  unreachable

lpad:                                             ; preds = %if.then
  %2 = landingpad { ptr, i32 }
          cleanup
  %3 = extractvalue { ptr, i32 } %2, 0
  store ptr %3, ptr %exn.slot, align 8
  %4 = extractvalue { ptr, i32 } %2, 1
  store i32 %4, ptr %ehselector.slot, align 4
  call void @__cxa_free_exception(ptr %exception) #6
  br label %eh.resume

if.end:                                           ; preds = %entry
  %5 = load ptr, ptr %runtime.addr, align 8
  %call2 = call noundef i64 @_ZNK8facebook3jsi6BigInt8getInt64ERNS0_7RuntimeE(ptr noundef nonnull align 8 dereferenceable(8) %this1, ptr noundef nonnull align 8 dereferenceable(8) %5)
  ret i64 %call2

eh.resume:                                        ; preds = %lpad
  %exn = load ptr, ptr %exn.slot, align 8
  %sel = load i32, ptr %ehselector.slot, align 4
  %lpad.val = insertvalue { ptr, i32 } poison, ptr %exn, 0
  %lpad.val3 = insertvalue { ptr, i32 } %lpad.val, i32 %sel, 1
  resume { ptr, i32 } %lpad.val3
}