; Function Attrs: mustprogress uwtable
define noundef i64 @_ZNK8facebook3jsi6BigInt7asInt64ERNS0_7RuntimeE(ptr noundef nonnull align 8 dereferenceable(8) %this, ptr noundef nonnull align 8 dereferenceable(8) %runtime) local_unnamed_addr #11 align 2 personality ptr @__gxx_personality_v0 {
entry:
  %vtable.i = load ptr, ptr %runtime, align 8
  %vfn.i = getelementptr inbounds i8, ptr %vtable.i, i64 192
  %0 = load ptr, ptr %vfn.i, align 8
  %call.i = tail call noundef zeroext i1 %0(ptr noundef nonnull align 8 dereferenceable(8) %runtime, ptr noundef nonnull align 8 dereferenceable(8) %this)
  br i1 %call.i, label %if.end, label %if.then

if.then:                                          ; preds = %entry
  %exception = tail call ptr @__cxa_allocate_exception(i64 120) #23
  invoke void @_ZN8facebook3jsi7JSErrorC2ERNS0_7RuntimeEPKc(ptr noundef nonnull align 8 dereferenceable(120) %exception, ptr noundef nonnull align 8 dereferenceable(8) %runtime, ptr noundef nonnull @.str.20)
          to label %invoke.cont unwind label %lpad

invoke.cont:                                      ; preds = %if.then
  tail call void @__cxa_throw(ptr nonnull %exception, ptr nonnull @_ZTIN8facebook3jsi7JSErrorE, ptr nonnull @_ZN8facebook3jsi7JSErrorD1Ev) #24
  unreachable

lpad:                                             ; preds = %if.then
  %1 = landingpad { ptr, i32 }
          cleanup
  tail call void @__cxa_free_exception(ptr %exception) #23
  resume { ptr, i32 } %1

if.end:                                           ; preds = %entry
  %vtable.i3 = load ptr, ptr %runtime, align 8
  %vfn.i4 = getelementptr inbounds i8, ptr %vtable.i3, i64 208
  %2 = load ptr, ptr %vfn.i4, align 8
  %call.i5 = tail call noundef i64 %2(ptr noundef nonnull align 8 dereferenceable(8) %runtime, ptr noundef nonnull align 8 dereferenceable(8) %this)
  ret i64 %call.i5
}